target datalayout = "e-m:e-p270:32:32-p271:32:32-p272:64:64-i64:64-i128:128-f80:128-n8:16:32:64-S128"
target triple = "x86_64-pc-linux-gnu"

%struct.ObjectAddress = type { i32, i32, i32 }
%struct.DR_intorel = type { %struct._DestReceiver, ptr, ptr, %struct.ObjectAddress, i32, i32, ptr }
%struct._DestReceiver = type { ptr, ptr, ptr, ptr, i32 }

; Function Attrs: nounwind uwtable
define dso_local ptr @CreateIntoRelDestReceiver(ptr noundef %0) #0 {
  %2 = alloca ptr, align 8
  %3 = alloca ptr, align 8
  store ptr %0, ptr %2, align 8
  call void @llvm.lifetime.start.p0(i64 8, ptr %3) #7
  %4 = call ptr @palloc0(i64 noundef 88)
  store ptr %4, ptr %3, align 8
  %5 = load ptr, ptr %3, align 8
  %6 = getelementptr inbounds nuw %struct.DR_intorel, ptr %5, i32 0, i32 0
  %7 = getelementptr inbounds nuw %struct._DestReceiver, ptr %6, i32 0, i32 0
  store ptr @intorel_receive, ptr %7, align 8
  %8 = load ptr, ptr %3, align 8
  %9 = getelementptr inbounds nuw %struct.DR_intorel, ptr %8, i32 0, i32 0
  %10 = getelementptr inbounds nuw %struct._DestReceiver, ptr %9, i32 0, i32 1
  store ptr @intorel_startup, ptr %10, align 8
  %11 = load ptr, ptr %3, align 8
  %12 = getelementptr inbounds nuw %struct.DR_intorel, ptr %11, i32 0, i32 0
  %13 = getelementptr inbounds nuw %struct._DestReceiver, ptr %12, i32 0, i32 2
  store ptr @intorel_shutdown, ptr %13, align 8
  %14 = load ptr, ptr %3, align 8
  %15 = getelementptr inbounds nuw %struct.DR_intorel, ptr %14, i32 0, i32 0
  %16 = getelementptr inbounds nuw %struct._DestReceiver, ptr %15, i32 0, i32 3
  store ptr @intorel_destroy, ptr %16, align 8
  %17 = load ptr, ptr %3, align 8
  %18 = getelementptr inbounds nuw %struct.DR_intorel, ptr %17, i32 0, i32 0
  %19 = getelementptr inbounds nuw %struct._DestReceiver, ptr %18, i32 0, i32 4
  store i32 7, ptr %19, align 8
  %20 = load ptr, ptr %2, align 8
  %21 = load ptr, ptr %3, align 8
  %22 = getelementptr inbounds nuw %struct.DR_intorel, ptr %21, i32 0, i32 1
  store ptr %20, ptr %22, align 8
  %23 = load ptr, ptr %3, align 8
  call void @llvm.lifetime.end.p0(i64 8, ptr %3) #7
  ret ptr %23
}